target datalayout = "e-m:e-p270:32:32-p271:32:32-p272:64:64-i64:64-i128:128-f80:128-n8:16:32:64-S128"
target triple = "x86_64-unknown-linux-gnu"

%"class.QuantLib::AlphaFormInverseLinear" = type { %"class.QuantLib::AlphaForm", %"class.std::vector", double }
%"class.QuantLib::AlphaForm" = type { ptr }
%"class.std::vector" = type { %"struct.std::_Vector_base" }
%"struct.std::_Vector_base" = type { %"struct.std::_Vector_base<double, std::allocator<double>>::_Vector_impl" }
%"struct.std::_Vector_base<double, std::allocator<double>>::_Vector_impl" = type { %"struct.std::_Vector_base<double, std::allocator<double>>::_Vector_impl_data" }
%"struct.std::_Vector_base<double, std::allocator<double>>::_Vector_impl_data" = type { ptr, ptr, ptr }

; Function Attrs: mustprogress nounwind uwtable
define linkonce_odr noundef nonnull align 8 dereferenceable(8) ptr @_ZNKSt6vectorIdSaIdEEixEm(ptr noundef nonnull align 8 dereferenceable(24) %this, i64 noundef %__n) #0 comdat align 2 {
entry:
  %this.addr = alloca ptr, align 8
  %__n.addr = alloca i64, align 8
  store ptr %this, ptr %this.addr, align 8, !tbaa !3
  store i64 %__n, ptr %__n.addr, align 8, !tbaa !20
  %this1 = load ptr, ptr %this.addr, align 8
  %_M_impl = getelementptr inbounds nuw %"struct.std::_Vector_base", ptr %this1, i32 0, i32 0
  %_M_start = getelementptr inbounds nuw %"struct.std::_Vector_base<double, std::allocator<double>>::_Vector_impl_data", ptr %_M_impl, i32 0, i32 0
  %0 = load ptr, ptr %_M_start, align 8, !tbaa !22
  %1 = load i64, ptr %__n.addr, align 8, !tbaa !20
  %add.ptr = getelementptr inbounds nuw double, ptr %0, i64 %1
  ret ptr %add.ptr
}

; Function Attrs: mustprogress nounwind uwtable
define noundef double @_ZNK8QuantLib22AlphaFormInverseLinearclEi(ptr noundef nonnull align 8 dereferenceable(40) %this, i32 noundef %i) unnamed_addr #0 align 2 {
entry:
  %this.addr = alloca ptr, align 8
  %i.addr = alloca i32, align 4
  store ptr %this, ptr %this.addr, align 8, !tbaa !3
  store i32 %i, ptr %i.addr, align 4, !tbaa !18
  %this1 = load ptr, ptr %this.addr, align 8
  %alpha_ = getelementptr inbounds nuw %"class.QuantLib::AlphaFormInverseLinear", ptr %this1, i32 0, i32 2
  %0 = load double, ptr %alpha_, align 8, !tbaa !11
  %times_ = getelementptr inbounds nuw %"class.QuantLib::AlphaFormInverseLinear", ptr %this1, i32 0, i32 1
  %1 = load i32, ptr %i.addr, align 4, !tbaa !18
  %conv = sext i32 %1 to i64
  %call = call noundef nonnull align 8 dereferenceable(8) ptr @_ZNKSt6vectorIdSaIdEEixEm(ptr noundef nonnull align 8 dereferenceable(24) %times_, i64 noundef %conv) #10
  %2 = load double, ptr %call, align 8, !tbaa !7
  %3 = call double @llvm.fmuladd.f64(double %0, double %2, double 1.000000e+00)
  %div = fdiv double 1.000000e+00, %3
  ret double %div
}