; Function Attrs: mustprogress nofree norecurse nosync nounwind willreturn memory(read, inaccessiblemem: none) uwtable
define noundef double @_ZNK8QuantLib22AlphaFormInverseLinearclEi(ptr nocapture noundef nonnull readonly align 8 dereferenceable(40) %this, i32 noundef %i) unnamed_addr #1 align 2 {
entry:
  %alpha_ = getelementptr inbounds nuw i8, ptr %this, i64 32
  %0 = load double, ptr %alpha_, align 8, !tbaa !12
  %times_ = getelementptr inbounds nuw i8, ptr %this, i64 8
  %conv = sext i32 %i to i64
  %1 = load ptr, ptr %times_, align 8, !tbaa !6
  %add.ptr.i = getelementptr inbounds nuw double, ptr %1, i64 %conv
  %2 = load double, ptr %add.ptr.i, align 8, !tbaa !19
  %3 = tail call double @llvm.fmuladd.f64(double %0, double %2, double 1.000000e+00)
  %div = fdiv double 1.000000e+00, %3
  ret double %div
}